target datalayout = "e-m:e-p270:32:32-p271:32:32-p272:64:64-i64:64-i128:128-f80:128-n8:16:32:64-S128"
target triple = "x86_64-unknown-linux-gnu"

%"class.msdfgen::Scanline" = type <{ %"class.std::vector", i32, [4 x i8] }>
%"class.std::vector" = type { %"struct.std::_Vector_base" }
%"struct.std::_Vector_base" = type { %"struct.std::_Vector_base<msdfgen::Scanline::Intersection, std::allocator<msdfgen::Scanline::Intersection>>::_Vector_impl" }
%"struct.std::_Vector_base<msdfgen::Scanline::Intersection, std::allocator<msdfgen::Scanline::Intersection>>::_Vector_impl" = type { %"struct.std::_Vector_base<msdfgen::Scanline::Intersection, std::allocator<msdfgen::Scanline::Intersection>>::_Vector_impl_data" }
%"struct.std::_Vector_base<msdfgen::Scanline::Intersection, std::allocator<msdfgen::Scanline::Intersection>>::_Vector_impl_data" = type { ptr, ptr, ptr }
%"struct.msdfgen::BitmapRef" = type { ptr, i32, i32 }
%"class.msdfgen::Shape" = type <{ %"class.std::vector.0", i8, [7 x i8] }>
%"class.std::vector.0" = type { %"struct.std::_Vector_base.1" }
%"struct.std::_Vector_base.1" = type { %"struct.std::_Vector_base<msdfgen::Contour, std::allocator<msdfgen::Contour>>::_Vector_impl" }
%"struct.std::_Vector_base<msdfgen::Contour, std::allocator<msdfgen::Contour>>::_Vector_impl" = type { %"struct.std::_Vector_base<msdfgen::Contour, std::allocator<msdfgen::Contour>>::_Vector_impl_data" }
%"struct.std::_Vector_base<msdfgen::Contour, std::allocator<msdfgen::Contour>>::_Vector_impl_data" = type { ptr, ptr, ptr }

; Function Attrs: mustprogress nounwind uwtable
define linkonce_odr dso_local void @_ZNSt15__new_allocatorIN7msdfgen8Scanline12IntersectionEED2Ev(ptr noundef nonnull align 1 dereferenceable(1) %this) unnamed_addr #2 comdat align 2 {
entry:
  %this.addr = alloca ptr, align 8
  store ptr %this, ptr %this.addr, align 8
  ret void
}

; Function Attrs: mustprogress nounwind uwtable
define linkonce_odr dso_local void @_ZNSt15__new_allocatorIN7msdfgen8Scanline12IntersectionEE10deallocateEPS2_m(ptr noundef nonnull align 1 dereferenceable(1) %this, ptr noundef %__p, i64 noundef %__n) #2 comdat align 2 {
entry:
  %this.addr = alloca ptr, align 8
  %__p.addr = alloca ptr, align 8
  %__n.addr = alloca i64, align 8
  store ptr %this, ptr %this.addr, align 8
  store ptr %__p, ptr %__p.addr, align 8
  store i64 %__n, ptr %__n.addr, align 8
  %0 = load ptr, ptr %__p.addr, align 8
  call void @_ZdlPv(ptr noundef %0) #12
  ret void
}

; Function Attrs: mustprogress nounwind uwtable
define linkonce_odr dso_local void @_ZNSaIN7msdfgen8Scanline12IntersectionEED2Ev(ptr noundef nonnull align 1 dereferenceable(1) %this) unnamed_addr #2 comdat align 2 {
entry:
  %this.addr = alloca ptr, align 8
  store ptr %this, ptr %this.addr, align 8
  %this1 = load ptr, ptr %this.addr, align 8
  call void @_ZNSt15__new_allocatorIN7msdfgen8Scanline12IntersectionEED2Ev(ptr noundef nonnull align 1 dereferenceable(1) %this1) #10
  ret void
}

; Function Attrs: mustprogress uwtable
define linkonce_odr dso_local void @_ZNSt16allocator_traitsISaIN7msdfgen8Scanline12IntersectionEEE10deallocateERS3_PS2_m(ptr noundef nonnull align 1 dereferenceable(1) %__a, ptr noundef %__p, i64 noundef %__n) #0 comdat align 2 {
entry:
  %__a.addr = alloca ptr, align 8
  %__p.addr = alloca ptr, align 8
  %__n.addr = alloca i64, align 8
  store ptr %__a, ptr %__a.addr, align 8
  store ptr %__p, ptr %__p.addr, align 8
  store i64 %__n, ptr %__n.addr, align 8
  %0 = load ptr, ptr %__a.addr, align 8
  %1 = load ptr, ptr %__p.addr, align 8
  %2 = load i64, ptr %__n.addr, align 8
  call void @_ZNSt15__new_allocatorIN7msdfgen8Scanline12IntersectionEE10deallocateEPS2_m(ptr noundef nonnull align 1 dereferenceable(1) %0, ptr noundef %1, i64 noundef %2)
  ret void
}

; Function Attrs: mustprogress nounwind uwtable
define linkonce_odr dso_local void @_ZNSt12_Destroy_auxILb1EE9__destroyIPN7msdfgen8Scanline12IntersectionEEEvT_S6_(ptr noundef %0, ptr noundef %1) #2 comdat align 2 {
entry:
  %.addr = alloca ptr, align 8
  %.addr1 = alloca ptr, align 8
  store ptr %0, ptr %.addr, align 8
  store ptr %1, ptr %.addr1, align 8
  ret void
}

; Function Attrs: mustprogress nounwind uwtable
define linkonce_odr dso_local void @_ZNSt12_Vector_baseIN7msdfgen8Scanline12IntersectionESaIS2_EE12_Vector_implD2Ev(ptr noundef nonnull align 8 dereferenceable(24) %this) unnamed_addr #2 comdat align 2 {
entry:
  %this.addr = alloca ptr, align 8
  store ptr %this, ptr %this.addr, align 8
  %this1 = load ptr, ptr %this.addr, align 8
  call void @_ZNSaIN7msdfgen8Scanline12IntersectionEED2Ev(ptr noundef nonnull align 1 dereferenceable(1) %this1) #10
  ret void
}

; Function Attrs: mustprogress uwtable
define linkonce_odr dso_local void @_ZNSt12_Vector_baseIN7msdfgen8Scanline12IntersectionESaIS2_EE13_M_deallocateEPS2_m(ptr noundef nonnull align 8 dereferenceable(24) %this, ptr noundef %__p, i64 noundef %__n) #0 comdat align 2 {
entry:
  %this.addr = alloca ptr, align 8
  %__p.addr = alloca ptr, align 8
  %__n.addr = alloca i64, align 8
  store ptr %this, ptr %this.addr, align 8
  store ptr %__p, ptr %__p.addr, align 8
  store i64 %__n, ptr %__n.addr, align 8
  %this1 = load ptr, ptr %this.addr, align 8
  %0 = load ptr, ptr %__p.addr, align 8
  %tobool = icmp ne ptr %0, null
  br i1 %tobool, label %if.then, label %if.end

if.then:                                          ; preds = %entry
  %_M_impl = getelementptr inbounds %"struct.std::_Vector_base", ptr %this1, i32 0, i32 0
  %1 = load ptr, ptr %__p.addr, align 8
  %2 = load i64, ptr %__n.addr, align 8
  call void @_ZNSt16allocator_traitsISaIN7msdfgen8Scanline12IntersectionEEE10deallocateERS3_PS2_m(ptr noundef nonnull align 1 dereferenceable(1) %_M_impl, ptr noundef %1, i64 noundef %2)
  br label %if.end

if.end:                                           ; preds = %if.then, %entry
  ret void
}

; Function Attrs: mustprogress uwtable
define linkonce_odr dso_local void @_ZSt8_DestroyIPN7msdfgen8Scanline12IntersectionEEvT_S4_(ptr noundef %__first, ptr noundef %__last) #0 comdat {
entry:
  %__first.addr = alloca ptr, align 8
  %__last.addr = alloca ptr, align 8
  store ptr %__first, ptr %__first.addr, align 8
  store ptr %__last, ptr %__last.addr, align 8
  %0 = load ptr, ptr %__first.addr, align 8
  %1 = load ptr, ptr %__last.addr, align 8
  call void @_ZNSt12_Destroy_auxILb1EE9__destroyIPN7msdfgen8Scanline12IntersectionEEEvT_S6_(ptr noundef %0, ptr noundef %1)
  ret void
}

; Function Attrs: noreturn nounwind uwtable
define linkonce_odr hidden void @__clang_call_terminate(ptr noundef %0) #3 comdat {
  %2 = call ptr @__cxa_begin_catch(ptr %0) #10
  call void @_ZSt9terminatev() #11
  unreachable
}

; Function Attrs: mustprogress nounwind uwtable
define linkonce_odr dso_local void @_ZNSt12_Vector_baseIN7msdfgen8Scanline12IntersectionESaIS2_EED2Ev(ptr noundef nonnull align 8 dereferenceable(24) %this) unnamed_addr #2 comdat align 2 personality ptr @__gxx_personality_v0 {
entry:
  %this.addr = alloca ptr, align 8
  store ptr %this, ptr %this.addr, align 8
  %this1 = load ptr, ptr %this.addr, align 8
  %_M_impl = getelementptr inbounds %"struct.std::_Vector_base", ptr %this1, i32 0, i32 0
  %_M_start = getelementptr inbounds %"struct.std::_Vector_base<msdfgen::Scanline::Intersection, std::allocator<msdfgen::Scanline::Intersection>>::_Vector_impl_data", ptr %_M_impl, i32 0, i32 0
  %0 = load ptr, ptr %_M_start, align 8
  %_M_impl2 = getelementptr inbounds %"struct.std::_Vector_base", ptr %this1, i32 0, i32 0
  %_M_end_of_storage = getelementptr inbounds %"struct.std::_Vector_base<msdfgen::Scanline::Intersection, std::allocator<msdfgen::Scanline::Intersection>>::_Vector_impl_data", ptr %_M_impl2, i32 0, i32 2
  %1 = load ptr, ptr %_M_end_of_storage, align 8
  %_M_impl3 = getelementptr inbounds %"struct.std::_Vector_base", ptr %this1, i32 0, i32 0
  %_M_start4 = getelementptr inbounds %"struct.std::_Vector_base<msdfgen::Scanline::Intersection, std::allocator<msdfgen::Scanline::Intersection>>::_Vector_impl_data", ptr %_M_impl3, i32 0, i32 0
  %2 = load ptr, ptr %_M_start4, align 8
  %sub.ptr.lhs.cast = ptrtoint ptr %1 to i64
  %sub.ptr.rhs.cast = ptrtoint ptr %2 to i64
  %sub.ptr.sub = sub i64 %sub.ptr.lhs.cast, %sub.ptr.rhs.cast
  %sub.ptr.div = sdiv exact i64 %sub.ptr.sub, 16
  invoke void @_ZNSt12_Vector_baseIN7msdfgen8Scanline12IntersectionESaIS2_EE13_M_deallocateEPS2_m(ptr noundef nonnull align 8 dereferenceable(24) %this1, ptr noundef %0, i64 noundef %sub.ptr.div)
          to label %invoke.cont unwind label %terminate.lpad

invoke.cont:                                      ; preds = %entry
  %_M_impl5 = getelementptr inbounds %"struct.std::_Vector_base", ptr %this1, i32 0, i32 0
  call void @_ZNSt12_Vector_baseIN7msdfgen8Scanline12IntersectionESaIS2_EE12_Vector_implD2Ev(ptr noundef nonnull align 8 dereferenceable(24) %_M_impl5) #10
  ret void

terminate.lpad:                                   ; preds = %entry
  %3 = landingpad { ptr, i32 }
          catch ptr null
  %4 = extractvalue { ptr, i32 } %3, 0
  call void @__clang_call_terminate(ptr %4) #11
  unreachable
}

; Function Attrs: mustprogress uwtable
define linkonce_odr dso_local void @_ZSt8_DestroyIPN7msdfgen8Scanline12IntersectionES2_EvT_S4_RSaIT0_E(ptr noundef %__first, ptr noundef %__last, ptr noundef nonnull align 1 dereferenceable(1) %0) #0 comdat {
entry:
  %__first.addr = alloca ptr, align 8
  %__last.addr = alloca ptr, align 8
  %.addr = alloca ptr, align 8
  store ptr %__first, ptr %__first.addr, align 8
  store ptr %__last, ptr %__last.addr, align 8
  store ptr %0, ptr %.addr, align 8
  %1 = load ptr, ptr %__first.addr, align 8
  %2 = load ptr, ptr %__last.addr, align 8
  call void @_ZSt8_DestroyIPN7msdfgen8Scanline12IntersectionEEvT_S4_(ptr noundef %1, ptr noundef %2)
  ret void
}

; Function Attrs: mustprogress nounwind uwtable
define linkonce_odr dso_local noundef nonnull align 1 dereferenceable(1) ptr @_ZNSt12_Vector_baseIN7msdfgen8Scanline12IntersectionESaIS2_EE19_M_get_Tp_allocatorEv(ptr noundef nonnull align 8 dereferenceable(24) %this) #2 comdat align 2 {
entry:
  %this.addr = alloca ptr, align 8
  store ptr %this, ptr %this.addr, align 8
  %this1 = load ptr, ptr %this.addr, align 8
  %_M_impl = getelementptr inbounds %"struct.std::_Vector_base", ptr %this1, i32 0, i32 0
  ret ptr %_M_impl
}

; Function Attrs: mustprogress nounwind uwtable
define linkonce_odr dso_local void @_ZNSt6vectorIN7msdfgen8Scanline12IntersectionESaIS2_EED2Ev(ptr noundef nonnull align 8 dereferenceable(24) %this) unnamed_addr #2 comdat align 2 personality ptr @__gxx_personality_v0 {
entry:
  %this.addr = alloca ptr, align 8
  store ptr %this, ptr %this.addr, align 8
  %this1 = load ptr, ptr %this.addr, align 8
  %_M_impl = getelementptr inbounds %"struct.std::_Vector_base", ptr %this1, i32 0, i32 0
  %_M_start = getelementptr inbounds %"struct.std::_Vector_base<msdfgen::Scanline::Intersection, std::allocator<msdfgen::Scanline::Intersection>>::_Vector_impl_data", ptr %_M_impl, i32 0, i32 0
  %0 = load ptr, ptr %_M_start, align 8
  %_M_impl2 = getelementptr inbounds %"struct.std::_Vector_base", ptr %this1, i32 0, i32 0
  %_M_finish = getelementptr inbounds %"struct.std::_Vector_base<msdfgen::Scanline::Intersection, std::allocator<msdfgen::Scanline::Intersection>>::_Vector_impl_data", ptr %_M_impl2, i32 0, i32 1
  %1 = load ptr, ptr %_M_finish, align 8
  %call = call noundef nonnull align 1 dereferenceable(1) ptr @_ZNSt12_Vector_baseIN7msdfgen8Scanline12IntersectionESaIS2_EE19_M_get_Tp_allocatorEv(ptr noundef nonnull align 8 dereferenceable(24) %this1) #10
  invoke void @_ZSt8_DestroyIPN7msdfgen8Scanline12IntersectionES2_EvT_S4_RSaIT0_E(ptr noundef %0, ptr noundef %1, ptr noundef nonnull align 1 dereferenceable(1) %call)
          to label %invoke.cont unwind label %terminate.lpad

invoke.cont:                                      ; preds = %entry
  call void @_ZNSt12_Vector_baseIN7msdfgen8Scanline12IntersectionESaIS2_EED2Ev(ptr noundef nonnull align 8 dereferenceable(24) %this1) #10
  ret void

terminate.lpad:                                   ; preds = %entry
  %2 = landingpad { ptr, i32 }
          catch ptr null
  %3 = extractvalue { ptr, i32 } %2, 0
  call void @__clang_call_terminate(ptr %3) #11
  unreachable
}

; Function Attrs: mustprogress nounwind uwtable
define linkonce_odr dso_local void @_ZN7msdfgen8ScanlineD2Ev(ptr noundef nonnull align 8 dereferenceable(28) %this) unnamed_addr #2 comdat align 2 {
entry:
  %this.addr = alloca ptr, align 8
  store ptr %this, ptr %this.addr, align 8
  %this1 = load ptr, ptr %this.addr, align 8
  %intersections = getelementptr inbounds %"class.msdfgen::Scanline", ptr %this1, i32 0, i32 0
  call void @_ZNSt6vectorIN7msdfgen8Scanline12IntersectionESaIS2_EED2Ev(ptr noundef nonnull align 8 dereferenceable(24) %intersections) #10
  ret void
}

; Function Attrs: mustprogress nounwind uwtable
define linkonce_odr dso_local noundef ptr @_ZNK7msdfgen9BitmapRefIfLi1EEclEii(ptr noundef nonnull align 8 dereferenceable(16) %this, i32 noundef %x, i32 noundef %y) #2 comdat align 2 {
entry:
  %this.addr = alloca ptr, align 8
  %x.addr = alloca i32, align 4
  %y.addr = alloca i32, align 4
  store ptr %this, ptr %this.addr, align 8
  store i32 %x, ptr %x.addr, align 4
  store i32 %y, ptr %y.addr, align 4
  %this1 = load ptr, ptr %this.addr, align 8
  %pixels = getelementptr inbounds %"struct.msdfgen::BitmapRef", ptr %this1, i32 0, i32 0
  %0 = load ptr, ptr %pixels, align 8
  %width = getelementptr inbounds %"struct.msdfgen::BitmapRef", ptr %this1, i32 0, i32 1
  %1 = load i32, ptr %width, align 8
  %2 = load i32, ptr %y.addr, align 4
  %mul = mul nsw i32 %1, %2
  %3 = load i32, ptr %x.addr, align 4
  %add = add nsw i32 %mul, %3
  %mul2 = mul nsw i32 1, %add
  %idx.ext = sext i32 %mul2 to i64
  %add.ptr = getelementptr inbounds float, ptr %0, i64 %idx.ext
  ret ptr %add.ptr
}

; Function Attrs: mustprogress uwtable
define dso_local void @_ZN7msdfgen22distanceSignCorrectionERKNS_9BitmapRefIfLi1EEERKNS_5ShapeERKNS_10ProjectionENS_8FillRuleE(ptr noundef nonnull align 8 dereferenceable(16) %sdf, ptr noundef nonnull align 8 dereferenceable(25) %shape, ptr noundef nonnull align 8 dereferenceable(32) %projection, i32 noundef %fillRule) #0 personality ptr @__gxx_personality_v0 {
entry:
  %sdf.addr = alloca ptr, align 8
  %shape.addr = alloca ptr, align 8
  %projection.addr = alloca ptr, align 8
  %fillRule.addr = alloca i32, align 4
  %scanline = alloca %"class.msdfgen::Scanline", align 8
  %y = alloca i32, align 4
  %row = alloca i32, align 4
  %exn.slot = alloca ptr, align 8
  %ehselector.slot = alloca i32, align 4
  %x = alloca i32, align 4
  %fill = alloca i8, align 1
  %sd = alloca ptr, align 8
  store ptr %sdf, ptr %sdf.addr, align 8
  store ptr %shape, ptr %shape.addr, align 8
  store ptr %projection, ptr %projection.addr, align 8
  store i32 %fillRule, ptr %fillRule.addr, align 4
  call void @_ZN7msdfgen8ScanlineC1Ev(ptr noundef nonnull align 8 dereferenceable(28) %scanline)
  store i32 0, ptr %y, align 4
  br label %for.cond

for.cond:                                         ; preds = %for.inc21, %entry
  %0 = load i32, ptr %y, align 4
  %1 = load ptr, ptr %sdf.addr, align 8
  %height = getelementptr inbounds %"struct.msdfgen::BitmapRef", ptr %1, i32 0, i32 2
  %2 = load i32, ptr %height, align 4
  %cmp = icmp slt i32 %0, %2
  br i1 %cmp, label %for.body, label %for.end23

for.body:                                         ; preds = %for.cond
  %3 = load ptr, ptr %shape.addr, align 8
  %inverseYAxis = getelementptr inbounds %"class.msdfgen::Shape", ptr %3, i32 0, i32 1
  %4 = load i8, ptr %inverseYAxis, align 8
  %tobool = trunc i8 %4 to i1
  br i1 %tobool, label %cond.true, label %cond.false

cond.true:                                        ; preds = %for.body
  %5 = load ptr, ptr %sdf.addr, align 8
  %height1 = getelementptr inbounds %"struct.msdfgen::BitmapRef", ptr %5, i32 0, i32 2
  %6 = load i32, ptr %height1, align 4
  %7 = load i32, ptr %y, align 4
  %sub = sub nsw i32 %6, %7
  %sub2 = sub nsw i32 %sub, 1
  br label %cond.end

cond.false:                                       ; preds = %for.body
  %8 = load i32, ptr %y, align 4
  br label %cond.end

cond.end:                                         ; preds = %cond.false, %cond.true
  %cond = phi i32 [ %sub2, %cond.true ], [ %8, %cond.false ]
  store i32 %cond, ptr %row, align 4
  %9 = load ptr, ptr %shape.addr, align 8
  %10 = load ptr, ptr %projection.addr, align 8
  %11 = load i32, ptr %y, align 4
  %conv = sitofp i32 %11 to double
  %add = fadd double %conv, 5.000000e-01
  %call = invoke noundef double @_ZNK7msdfgen10Projection10unprojectYEd(ptr noundef nonnull align 8 dereferenceable(32) %10, double noundef %add)
          to label %invoke.cont unwind label %lpad

invoke.cont:                                      ; preds = %cond.end
  invoke void @_ZNK7msdfgen5Shape8scanlineERNS_8ScanlineEd(ptr noundef nonnull align 8 dereferenceable(25) %9, ptr noundef nonnull align 8 dereferenceable(28) %scanline, double noundef %call)
          to label %invoke.cont3 unwind label %lpad

invoke.cont3:                                     ; preds = %invoke.cont
  store i32 0, ptr %x, align 4
  br label %for.cond4

for.cond4:                                        ; preds = %for.inc, %invoke.cont3
  %12 = load i32, ptr %x, align 4
  %13 = load ptr, ptr %sdf.addr, align 8
  %width = getelementptr inbounds %"struct.msdfgen::BitmapRef", ptr %13, i32 0, i32 1
  %14 = load i32, ptr %width, align 8
  %cmp5 = icmp slt i32 %12, %14
  br i1 %cmp5, label %for.body6, label %for.end

for.body6:                                        ; preds = %for.cond4
  %15 = load ptr, ptr %projection.addr, align 8
  %16 = load i32, ptr %x, align 4
  %conv7 = sitofp i32 %16 to double
  %add8 = fadd double %conv7, 5.000000e-01
  %call10 = invoke noundef double @_ZNK7msdfgen10Projection10unprojectXEd(ptr noundef nonnull align 8 dereferenceable(32) %15, double noundef %add8)
          to label %invoke.cont9 unwind label %lpad

invoke.cont9:                                     ; preds = %for.body6
  %17 = load i32, ptr %fillRule.addr, align 4
  %call12 = invoke noundef zeroext i1 @_ZNK7msdfgen8Scanline6filledEdNS_8FillRuleE(ptr noundef nonnull align 8 dereferenceable(28) %scanline, double noundef %call10, i32 noundef %17)
          to label %invoke.cont11 unwind label %lpad

invoke.cont11:                                    ; preds = %invoke.cont9
  %frombool = zext i1 %call12 to i8
  store i8 %frombool, ptr %fill, align 1
  %18 = load ptr, ptr %sdf.addr, align 8
  %19 = load i32, ptr %x, align 4
  %20 = load i32, ptr %row, align 4
  %call14 = invoke noundef ptr @_ZNK7msdfgen9BitmapRefIfLi1EEclEii(ptr noundef nonnull align 8 dereferenceable(16) %18, i32 noundef %19, i32 noundef %20)
          to label %invoke.cont13 unwind label %lpad

invoke.cont13:                                    ; preds = %invoke.cont11
  store ptr %call14, ptr %sd, align 8
  %21 = load ptr, ptr %sd, align 8
  %22 = load float, ptr %21, align 4
  %cmp15 = fcmp ogt float %22, 5.000000e-01
  %conv16 = zext i1 %cmp15 to i32
  %23 = load i8, ptr %fill, align 1
  %tobool17 = trunc i8 %23 to i1
  %conv18 = zext i1 %tobool17 to i32
  %cmp19 = icmp ne i32 %conv16, %conv18
  br i1 %cmp19, label %if.then, label %if.end

if.then:                                          ; preds = %invoke.cont13
  %24 = load ptr, ptr %sd, align 8
  %25 = load float, ptr %24, align 4
  %sub20 = fsub float 1.000000e+00, %25
  %26 = load ptr, ptr %sd, align 8
  store float %sub20, ptr %26, align 4
  br label %if.end

lpad:                                             ; preds = %invoke.cont11, %invoke.cont9, %for.body6, %invoke.cont, %cond.end
  %27 = landingpad { ptr, i32 }
          cleanup
  %28 = extractvalue { ptr, i32 } %27, 0
  store ptr %28, ptr %exn.slot, align 8
  %29 = extractvalue { ptr, i32 } %27, 1
  store i32 %29, ptr %ehselector.slot, align 4
  call void @_ZN7msdfgen8ScanlineD2Ev(ptr noundef nonnull align 8 dereferenceable(28) %scanline) #10
  br label %eh.resume

if.end:                                           ; preds = %if.then, %invoke.cont13
  br label %for.inc

for.inc:                                          ; preds = %if.end
  %30 = load i32, ptr %x, align 4
  %inc = add nsw i32 %30, 1
  store i32 %inc, ptr %x, align 4
  br label %for.cond4, !llvm.loop !8

for.end:                                          ; preds = %for.cond4
  br label %for.inc21

for.inc21:                                        ; preds = %for.end
  %31 = load i32, ptr %y, align 4
  %inc22 = add nsw i32 %31, 1
  store i32 %inc22, ptr %y, align 4
  br label %for.cond, !llvm.loop !9

for.end23:                                        ; preds = %for.cond
  call void @_ZN7msdfgen8ScanlineD2Ev(ptr noundef nonnull align 8 dereferenceable(28) %scanline) #10
  ret void

eh.resume:                                        ; preds = %lpad
  %exn = load ptr, ptr %exn.slot, align 8
  %sel = load i32, ptr %ehselector.slot, align 4
  %lpad.val = insertvalue { ptr, i32 } poison, ptr %exn, 0
  %lpad.val24 = insertvalue { ptr, i32 } %lpad.val, i32 %sel, 1
  resume { ptr, i32 } %lpad.val24
}