; Function Attrs: mustprogress uwtable
define dso_local void @_ZN7msdfgen22distanceSignCorrectionERKNS_9BitmapRefIfLi1EEERKNS_5ShapeERKNS_10ProjectionENS_8FillRuleE(ptr noundef nonnull readonly align 8 captures(none) dereferenceable(16) %sdf, ptr noundef nonnull align 8 dereferenceable(25) %shape, ptr noundef nonnull align 8 dereferenceable(32) %projection, i32 noundef %fillRule) local_unnamed_addr #0 personality ptr @__gxx_personality_v0 {
entry:
  %scanline = alloca %"class.msdfgen::Scanline", align 8
  call void @_ZN7msdfgen8ScanlineC1Ev(ptr noundef nonnull align 8 dereferenceable(28) %scanline)
  %height = getelementptr inbounds nuw i8, ptr %sdf, i64 12
  %0 = load i32, ptr %height, align 4
  %cmp22 = icmp sgt i32 %0, 0
  br i1 %cmp22, label %for.body.lr.ph, label %for.end23

for.body.lr.ph:                                   ; preds = %entry
  %inverseYAxis = getelementptr inbounds nuw i8, ptr %shape, i64 24
  %width = getelementptr inbounds nuw i8, ptr %sdf, i64 8
  br label %for.body

for.body:                                         ; preds = %for.body.lr.ph, %for.inc21
  %1 = phi i32 [ %0, %for.body.lr.ph ], [ %11, %for.inc21 ]
  %y.023 = phi i32 [ 0, %for.body.lr.ph ], [ %inc22, %for.inc21 ]
  %2 = load i8, ptr %inverseYAxis, align 8
  %tobool = trunc i8 %2 to i1
  %3 = xor i32 %y.023, -1
  %sub2 = add i32 %1, %3
  %cond = select i1 %tobool, i32 %sub2, i32 %y.023
  %conv = uitofp nneg i32 %y.023 to double
  %add = fadd double %conv, 5.000000e-01
  %call = invoke noundef double @_ZNK7msdfgen10Projection10unprojectYEd(ptr noundef nonnull align 8 dereferenceable(32) %projection, double noundef %add)
          to label %invoke.cont unwind label %lpad.loopexit.split-lp

invoke.cont:                                      ; preds = %for.body
  invoke void @_ZNK7msdfgen5Shape8scanlineERNS_8ScanlineEd(ptr noundef nonnull align 8 dereferenceable(25) %shape, ptr noundef nonnull align 8 dereferenceable(28) %scanline, double noundef %call)
          to label %for.cond4.preheader unwind label %lpad.loopexit.split-lp

for.cond4.preheader:                              ; preds = %invoke.cont
  %4 = load i32, ptr %width, align 8
  %cmp520 = icmp sgt i32 %4, 0
  br i1 %cmp520, label %for.body6, label %for.inc21

for.body6:                                        ; preds = %for.cond4.preheader, %for.inc
  %x.021 = phi i32 [ %inc, %for.inc ], [ 0, %for.cond4.preheader ]
  %conv7 = uitofp nneg i32 %x.021 to double
  %add8 = fadd double %conv7, 5.000000e-01
  %call10 = invoke noundef double @_ZNK7msdfgen10Projection10unprojectXEd(ptr noundef nonnull align 8 dereferenceable(32) %projection, double noundef %add8)
          to label %invoke.cont9 unwind label %lpad.loopexit

invoke.cont9:                                     ; preds = %for.body6
  %call12 = invoke noundef zeroext i1 @_ZNK7msdfgen8Scanline6filledEdNS_8FillRuleE(ptr noundef nonnull align 8 dereferenceable(28) %scanline, double noundef %call10, i32 noundef %fillRule)
          to label %invoke.cont11 unwind label %lpad.loopexit

invoke.cont11:                                    ; preds = %invoke.cont9
  %5 = load ptr, ptr %sdf, align 8
  %6 = load i32, ptr %width, align 8
  %mul.i = mul nsw i32 %6, %cond
  %add.i = add nsw i32 %mul.i, %x.021
  %idx.ext.i = sext i32 %add.i to i64
  %add.ptr.i = getelementptr inbounds float, ptr %5, i64 %idx.ext.i
  %7 = load float, ptr %add.ptr.i, align 4
  %8 = fcmp ule float %7, 5.000000e-01
  %cmp19.not = xor i1 %call12, %8
  br i1 %cmp19.not, label %for.inc, label %if.then

if.then:                                          ; preds = %invoke.cont11
  %sub20 = fsub float 1.000000e+00, %7
  store float %sub20, ptr %add.ptr.i, align 4
  %.pre = load i32, ptr %width, align 8
  br label %for.inc

lpad.loopexit:                                    ; preds = %for.body6, %invoke.cont9
  %lpad.loopexit18 = landingpad { ptr, i32 }
          cleanup
  br label %lpad

lpad.loopexit.split-lp:                           ; preds = %for.body, %invoke.cont
  %lpad.loopexit.split-lp19 = landingpad { ptr, i32 }
          cleanup
  br label %lpad

lpad:                                             ; preds = %lpad.loopexit.split-lp, %lpad.loopexit
  %lpad.phi = phi { ptr, i32 } [ %lpad.loopexit18, %lpad.loopexit ], [ %lpad.loopexit.split-lp19, %lpad.loopexit.split-lp ]
  %9 = load ptr, ptr %scanline, align 8
  %tobool.not.i.i.i.i = icmp eq ptr %9, null
  br i1 %tobool.not.i.i.i.i, label %_ZN7msdfgen8ScanlineD2Ev.exit, label %if.then.i.i.i.i

if.then.i.i.i.i:                                  ; preds = %lpad
  call void @_ZdlPv(ptr noundef nonnull %9) #9
  br label %_ZN7msdfgen8ScanlineD2Ev.exit

_ZN7msdfgen8ScanlineD2Ev.exit:                    ; preds = %lpad, %if.then.i.i.i.i
  resume { ptr, i32 } %lpad.phi

for.inc:                                          ; preds = %invoke.cont11, %if.then
  %10 = phi i32 [ %6, %invoke.cont11 ], [ %.pre, %if.then ]
  %inc = add nuw nsw i32 %x.021, 1
  %cmp5 = icmp slt i32 %inc, %10
  br i1 %cmp5, label %for.body6, label %for.inc21, !llvm.loop !8

for.inc21:                                        ; preds = %for.inc, %for.cond4.preheader
  %inc22 = add nuw nsw i32 %y.023, 1
  %11 = load i32, ptr %height, align 4
  %cmp = icmp slt i32 %inc22, %11
  br i1 %cmp, label %for.body, label %for.end23, !llvm.loop !9

for.end23:                                        ; preds = %for.inc21, %entry
  %12 = load ptr, ptr %scanline, align 8
  %tobool.not.i.i.i.i15 = icmp eq ptr %12, null
  br i1 %tobool.not.i.i.i.i15, label %_ZN7msdfgen8ScanlineD2Ev.exit17, label %if.then.i.i.i.i16

if.then.i.i.i.i16:                                ; preds = %for.end23
  call void @_ZdlPv(ptr noundef nonnull %12) #9
  br label %_ZN7msdfgen8ScanlineD2Ev.exit17

_ZN7msdfgen8ScanlineD2Ev.exit17:                  ; preds = %for.end23, %if.then.i.i.i.i16
  ret void
}